target datalayout = "e-m:e-p270:32:32-p271:32:32-p272:64:64-i64:64-i128:128-f80:128-n8:16:32:64-S128"
target triple = "x86_64-unknown-linux-gnu"

%"class.icu_75::FunctionReplacer" = type { %"class.icu_75::UnicodeFunctor", %"class.icu_75::UnicodeReplacer", ptr, ptr }
%"class.icu_75::UnicodeFunctor" = type { %"class.icu_75::UObject" }
%"class.icu_75::UObject" = type { ptr }
%"class.icu_75::UnicodeReplacer" = type { ptr }
%"class.icu_75::UnicodeSet" = type <{ %"class.icu_75::UnicodeFilter", ptr, i32, i32, i8, [7 x i8], ptr, ptr, i32, [4 x i8], ptr, i32, [4 x i8], ptr, ptr, [25 x i32], [4 x i8] }>
%"class.icu_75::UnicodeFilter" = type { %"class.icu_75::UnicodeFunctor", %"class.icu_75::UnicodeMatcher" }
%"class.icu_75::UnicodeMatcher" = type { ptr }

; Function Attrs: mustprogress uwtable
define void @_ZNK6icu_7516FunctionReplacer19addReplacementSetToERNS_10UnicodeSetE(ptr noundef nonnull align 8 dereferenceable(32) %this, ptr noundef nonnull align 8 dereferenceable(200) %toUnionTo) unnamed_addr #1 align 2 personality ptr @__gxx_personality_v0 {
entry:
  %this.addr = alloca ptr, align 8
  %toUnionTo.addr = alloca ptr, align 8
  %set = alloca %"class.icu_75::UnicodeSet", align 8
  %exn.slot = alloca ptr, align 8
  %ehselector.slot = alloca i32, align 4
  store ptr %this, ptr %this.addr, align 8
  store ptr %toUnionTo, ptr %toUnionTo.addr, align 8
  %this1 = load ptr, ptr %this.addr, align 8
  call void @_ZN6icu_7510UnicodeSetC1Ev(ptr noundef nonnull align 8 dereferenceable(200) %set)
  %0 = load ptr, ptr %toUnionTo.addr, align 8
  %translit = getelementptr inbounds %"class.icu_75::FunctionReplacer", ptr %this1, i32 0, i32 2
  %1 = load ptr, ptr %translit, align 8
  %vtable = load ptr, ptr %1, align 8
  %vfn = getelementptr inbounds ptr, ptr %vtable, i64 16
  %2 = load ptr, ptr %vfn, align 8
  %call = invoke noundef nonnull align 8 dereferenceable(200) ptr %2(ptr noundef nonnull align 8 dereferenceable(84) %1, ptr noundef nonnull align 8 dereferenceable(200) %set)
          to label %invoke.cont unwind label %lpad

invoke.cont:                                      ; preds = %entry
  %call3 = invoke noundef nonnull align 8 dereferenceable(200) ptr @_ZN6icu_7510UnicodeSet6addAllERKS0_(ptr noundef nonnull align 8 dereferenceable(200) %0, ptr noundef nonnull align 8 dereferenceable(200) %call)
          to label %invoke.cont2 unwind label %lpad

invoke.cont2:                                     ; preds = %invoke.cont
  call void @_ZN6icu_7510UnicodeSetD1Ev(ptr noundef nonnull align 8 dereferenceable(200) %set) #6
  ret void

lpad:                                             ; preds = %invoke.cont, %entry
  %3 = landingpad { ptr, i32 }
          cleanup
  %4 = extractvalue { ptr, i32 } %3, 0
  store ptr %4, ptr %exn.slot, align 8
  %5 = extractvalue { ptr, i32 } %3, 1
  store i32 %5, ptr %ehselector.slot, align 4
  call void @_ZN6icu_7510UnicodeSetD1Ev(ptr noundef nonnull align 8 dereferenceable(200) %set) #6
  br label %eh.resume

eh.resume:                                        ; preds = %lpad
  %exn = load ptr, ptr %exn.slot, align 8
  %sel = load i32, ptr %ehselector.slot, align 4
  %lpad.val = insertvalue { ptr, i32 } poison, ptr %exn, 0
  %lpad.val4 = insertvalue { ptr, i32 } %lpad.val, i32 %sel, 1
  resume { ptr, i32 } %lpad.val4
}

; Function Attrs: uwtable
define void @_ZThn8_NK6icu_7516FunctionReplacer19addReplacementSetToERNS_10UnicodeSetE(ptr noundef %this, ptr noundef nonnull align 8 dereferenceable(200) %toUnionTo) unnamed_addr #4 align 2 {
entry:
  %this.addr = alloca ptr, align 8
  %toUnionTo.addr = alloca ptr, align 8
  store ptr %this, ptr %this.addr, align 8
  store ptr %toUnionTo, ptr %toUnionTo.addr, align 8
  %this1 = load ptr, ptr %this.addr, align 8
  %0 = getelementptr inbounds i8, ptr %this1, i64 -8
  %1 = load ptr, ptr %toUnionTo.addr, align 8
  tail call void @_ZNK6icu_7516FunctionReplacer19addReplacementSetToERNS_10UnicodeSetE(ptr noundef nonnull align 8 dereferenceable(32) %0, ptr noundef nonnull align 8 dereferenceable(200) %1)
  ret void
}