; Function Attrs: uwtable
define void @_ZThn8_NK6icu_7516FunctionReplacer19addReplacementSetToERNS_10UnicodeSetE(ptr nocapture noundef readonly %this, ptr noundef nonnull align 8 dereferenceable(200) %toUnionTo) unnamed_addr #6 align 2 personality ptr @__gxx_personality_v0 {
entry:
  %set.i = alloca %"class.icu_75::UnicodeSet", align 8
  call void @llvm.lifetime.start.p0(i64 200, ptr nonnull %set.i)
  call void @_ZN6icu_7510UnicodeSetC1Ev(ptr noundef nonnull align 8 dereferenceable(200) %set.i)
  %translit.i = getelementptr inbounds i8, ptr %this, i64 8
  %0 = load ptr, ptr %translit.i, align 8
  %vtable.i = load ptr, ptr %0, align 8
  %vfn.i = getelementptr inbounds i8, ptr %vtable.i, i64 128
  %1 = load ptr, ptr %vfn.i, align 8
  %call.i = invoke noundef nonnull align 8 dereferenceable(200) ptr %1(ptr noundef nonnull align 8 dereferenceable(84) %0, ptr noundef nonnull align 8 dereferenceable(200) %set.i)
          to label %invoke.cont.i unwind label %lpad.i

invoke.cont.i:                                    ; preds = %entry
  %call3.i = invoke noundef nonnull align 8 dereferenceable(200) ptr @_ZN6icu_7510UnicodeSet6addAllERKS0_(ptr noundef nonnull align 8 dereferenceable(200) %toUnionTo, ptr noundef nonnull align 8 dereferenceable(200) %call.i)
          to label %_ZNK6icu_7516FunctionReplacer19addReplacementSetToERNS_10UnicodeSetE.exit unwind label %lpad.i

lpad.i:                                           ; preds = %invoke.cont.i, %entry
  %2 = landingpad { ptr, i32 }
          cleanup
  call void @_ZN6icu_7510UnicodeSetD1Ev(ptr noundef nonnull align 8 dereferenceable(200) %set.i) #9
  resume { ptr, i32 } %2

_ZNK6icu_7516FunctionReplacer19addReplacementSetToERNS_10UnicodeSetE.exit: ; preds = %invoke.cont.i
  call void @_ZN6icu_7510UnicodeSetD1Ev(ptr noundef nonnull align 8 dereferenceable(200) %set.i) #9
  call void @llvm.lifetime.end.p0(i64 200, ptr nonnull %set.i)
  ret void
}